target datalayout = "e-m:e-p270:32:32-p271:32:32-p272:64:64-i64:64-i128:128-f80:128-n8:16:32:64-S128"
target triple = "x86_64-pc-linux-gnu"

%struct._object = type { %union.anon, ptr }
%union.anon = type { i64 }
%struct.seqiterobject = type { %struct._object, i64, ptr }

@_Py_NotImplementedStruct = external global %struct._object, align 8

; Function Attrs: nounwind uwtable
define internal ptr @iter_len(ptr noundef %0, ptr noundef %1) #0 {
  %3 = alloca ptr, align 8
  %4 = alloca ptr, align 8
  %5 = alloca ptr, align 8
  %6 = alloca i64, align 8
  %7 = alloca i64, align 8
  %8 = alloca i32, align 4
  store ptr %0, ptr %4, align 8, !tbaa !9
  store ptr %1, ptr %5, align 8, !tbaa !4
  call void @llvm.lifetime.start.p0(i64 8, ptr %6) #7
  call void @llvm.lifetime.start.p0(i64 8, ptr %7) #7
  %9 = load ptr, ptr %4, align 8, !tbaa !9
  %10 = getelementptr inbounds nuw %struct.seqiterobject, ptr %9, i32 0, i32 2
  %11 = load ptr, ptr %10, align 8, !tbaa !15
  %12 = icmp ne ptr %11, null
  br i1 %12, label %13, label %41

13:                                               ; preds = %2
  %14 = load ptr, ptr %4, align 8, !tbaa !9
  %15 = getelementptr inbounds nuw %struct.seqiterobject, ptr %14, i32 0, i32 2
  %16 = load ptr, ptr %15, align 8, !tbaa !15
  %17 = call i32 @_PyObject_HasLen(ptr noundef %16)
  %18 = icmp ne i32 %17, 0
  br i1 %18, label %19, label %28

19:                                               ; preds = %13
  %20 = load ptr, ptr %4, align 8, !tbaa !9
  %21 = getelementptr inbounds nuw %struct.seqiterobject, ptr %20, i32 0, i32 2
  %22 = load ptr, ptr %21, align 8, !tbaa !15
  %23 = call i64 @PySequence_Size(ptr noundef %22)
  store i64 %23, ptr %6, align 8, !tbaa !98
  %24 = load i64, ptr %6, align 8, !tbaa !98
  %25 = icmp eq i64 %24, -1
  br i1 %25, label %26, label %27

26:                                               ; preds = %19
  store ptr null, ptr %3, align 8
  store i32 1, ptr %8, align 4
  br label %43

27:                                               ; preds = %19
  br label %29

28:                                               ; preds = %13
  store ptr @_Py_NotImplementedStruct, ptr %3, align 8
  store i32 1, ptr %8, align 4
  br label %43

29:                                               ; preds = %27
  %30 = load i64, ptr %6, align 8, !tbaa !98
  %31 = load ptr, ptr %4, align 8, !tbaa !9
  %32 = getelementptr inbounds nuw %struct.seqiterobject, ptr %31, i32 0, i32 1
  %33 = load i64, ptr %32, align 8, !tbaa !10
  %34 = sub i64 %30, %33
  store i64 %34, ptr %7, align 8, !tbaa !98
  %35 = load i64, ptr %7, align 8, !tbaa !98
  %36 = icmp sge i64 %35, 0
  br i1 %36, label %37, label %40

37:                                               ; preds = %29
  %38 = load i64, ptr %7, align 8, !tbaa !98
  %39 = call ptr @PyLong_FromSsize_t(i64 noundef %38)
  store ptr %39, ptr %3, align 8
  store i32 1, ptr %8, align 4
  br label %43

40:                                               ; preds = %29
  br label %41

41:                                               ; preds = %40, %2
  %42 = call ptr @PyLong_FromLong(i64 noundef 0)
  store ptr %42, ptr %3, align 8
  store i32 1, ptr %8, align 4
  br label %43

43:                                               ; preds = %41, %37, %28, %26
  call void @llvm.lifetime.end.p0(i64 8, ptr %7) #7
  call void @llvm.lifetime.end.p0(i64 8, ptr %6) #7
  %44 = load ptr, ptr %3, align 8
  ret ptr %44
}