; Function Attrs: nounwind uwtable
define internal ptr @iter_len(ptr noundef readonly captures(none) %0, ptr readnone captures(none) %1) #0 {
  %3 = getelementptr inbounds nuw i8, ptr %0, i64 24
  %4 = load ptr, ptr %3, align 8, !tbaa !14
  %.not = icmp eq ptr %4, null
  br i1 %.not, label %18, label %5

5:                                                ; preds = %2
  %6 = tail call i32 @_PyObject_HasLen(ptr noundef nonnull %4) #4
  %.not11 = icmp eq i32 %6, 0
  br i1 %.not11, label %20, label %7

7:                                                ; preds = %5
  %8 = load ptr, ptr %3, align 8, !tbaa !14
  %9 = tail call i64 @PySequence_Size(ptr noundef %8) #4
  %10 = icmp eq i64 %9, -1
  br i1 %10, label %20, label %11

11:                                               ; preds = %7
  %12 = getelementptr inbounds nuw i8, ptr %0, i64 16
  %13 = load i64, ptr %12, align 8, !tbaa !4
  %14 = sub i64 %9, %13
  %15 = icmp sgt i64 %14, -1
  br i1 %15, label %16, label %18

16:                                               ; preds = %11
  %17 = tail call ptr @PyLong_FromSsize_t(i64 noundef %14) #4
  br label %20

18:                                               ; preds = %11, %2
  %19 = tail call ptr @PyLong_FromLong(i64 noundef 0) #4
  br label %20

20:                                               ; preds = %5, %7, %18, %16
  %.0 = phi ptr [ %17, %16 ], [ %19, %18 ], [ null, %7 ], [ @_Py_NotImplementedStruct, %5 ]
  ret ptr %.0
}